; Function Attrs: nounwind uwtable
define internal noundef i32 @webp_init(ptr noundef readonly captures(none) %0) #0 {
  %2 = getelementptr inbounds nuw i8, ptr %0, i64 24
  %3 = load ptr, ptr %2, align 8, !tbaa !4
  %4 = getelementptr inbounds nuw i8, ptr %0, i64 48
  %5 = load ptr, ptr %4, align 8, !tbaa !40
  %6 = load ptr, ptr %5, align 8, !tbaa !41
  %7 = getelementptr inbounds nuw i8, ptr %0, i64 512
  %8 = load ptr, ptr %7, align 8, !tbaa !43
  %9 = getelementptr inbounds nuw i8, ptr %3, i64 16
  store ptr %8, ptr %9, align 8, !tbaa !37
  tail call void @avpriv_set_pts_info(ptr noundef %6, i32 noundef 24, i32 noundef 1, i32 noundef 1000) #4
  ret i32 0
}